target datalayout = "e-m:e-p270:32:32-p271:32:32-p272:64:64-i64:64-i128:128-f80:128-n8:16:32:64-S128"
target triple = "x86_64-pc-linux-gnu"

%class.SupportedProtocolsModel = type <{ %class.QAbstractItemModel, ptr, i32, [4 x i8] }>
%class.QAbstractItemModel = type { %class.QObject }
%class.QObject = type { ptr, %class.QScopedPointer }
%class.QScopedPointer = type { ptr }

@_ZN22SupportedProtocolsItemC1EP9_protocolPKcS3_6ftenumS3_PS_ = unnamed_addr alias void (ptr, ptr, ptr, ptr, i32, ptr, ptr), ptr @_ZN22SupportedProtocolsItemC2EP9_protocolPKcS3_6ftenumS3_PS_

; Function Attrs: mustprogress null_pointer_is_valid sspstrong uwtable
define void @_ZN23SupportedProtocolsModelC2EP7QObject(ptr noundef align 8 dereferenceable_or_null(28) %0, ptr noundef %1) unnamed_addr #0 align 2 personality ptr @__gxx_personality_v0 {
  %3 = alloca ptr, align 8
  %4 = alloca ptr, align 8
  %5 = alloca ptr, align 8
  %6 = alloca i32, align 4
  store ptr %0, ptr %3, align 8
  store ptr %1, ptr %4, align 8
  %7 = load ptr, ptr %3, align 8
  %8 = load ptr, ptr %4, align 8
  call void @_ZN18QAbstractItemModelC2EP7QObject(ptr noundef align 8 dereferenceable_or_null(16) %7, ptr noundef %8)
  store ptr getelementptr inbounds inrange(-16, 392) ({ [51 x ptr] }, ptr @_ZTV23SupportedProtocolsModel, i32 0, i32 0, i32 2), ptr %7, align 8
  %9 = getelementptr inbounds nuw %class.SupportedProtocolsModel, ptr %7, i32 0, i32 1
  %10 = invoke noalias noundef ptr @_Znwm(i64 noundef 128) #21
          to label %11 unwind label %14

11:                                               ; preds = %2
  invoke void @_ZN22SupportedProtocolsItemC1EP9_protocolPKcS3_6ftenumS3_PS_(ptr noundef align 8 dereferenceable_or_null(128) %10, ptr noundef null, ptr noundef null, ptr noundef null, i32 noundef 0, ptr noundef null, ptr noundef null)
          to label %12 unwind label %18

12:                                               ; preds = %11
  store ptr %10, ptr %9, align 8
  %13 = getelementptr inbounds nuw %class.SupportedProtocolsModel, ptr %7, i32 0, i32 2
  store i32 0, ptr %13, align 8
  ret void

14:                                               ; preds = %2
  %15 = landingpad { ptr, i32 }
          cleanup
  %16 = extractvalue { ptr, i32 } %15, 0
  store ptr %16, ptr %5, align 8
  %17 = extractvalue { ptr, i32 } %15, 1
  store i32 %17, ptr %6, align 4
  br label %22

18:                                               ; preds = %11
  %19 = landingpad { ptr, i32 }
          cleanup
  %20 = extractvalue { ptr, i32 } %19, 0
  store ptr %20, ptr %5, align 8
  %21 = extractvalue { ptr, i32 } %19, 1
  store i32 %21, ptr %6, align 4
  call void @_ZdlPvm(ptr noundef %10, i64 noundef 128) #20
  br label %22

22:                                               ; preds = %18, %14
  call void @_ZN18QAbstractItemModelD2Ev(ptr noundef align 8 dereferenceable_or_null(16) %7) #19
  br label %23

23:                                               ; preds = %22
  %24 = load ptr, ptr %5, align 8
  %25 = load i32, ptr %6, align 4
  %26 = insertvalue { ptr, i32 } poison, ptr %24, 0
  %27 = insertvalue { ptr, i32 } %26, i32 %25, 1
  resume { ptr, i32 } %27
}