; Function Attrs: mustprogress null_pointer_is_valid sspstrong uwtable
define void @_ZN23SupportedProtocolsModelC2EP7QObject(ptr noundef align 8 dereferenceable_or_null(28) %0, ptr noundef %1) unnamed_addr #0 align 2 personality ptr @__gxx_personality_v0 {
  tail call void @_ZN18QAbstractItemModelC2EP7QObject(ptr noundef align 8 dereferenceable_or_null(16) %0, ptr noundef %1)
  store ptr getelementptr inbounds nuw inrange(-16, 392) (i8, ptr @_ZTV23SupportedProtocolsModel, i64 16), ptr %0, align 8
  %3 = invoke noalias noundef dereferenceable_or_null(128) ptr @_Znwm(i64 noundef 128) #24
          to label %4 unwind label %8

4:                                                ; preds = %2
  invoke void @_ZN22SupportedProtocolsItemC1EP9_protocolPKcS3_6ftenumS3_PS_(ptr noundef align 8 dereferenceable_or_null(128) %3, ptr noundef null, ptr noundef null, ptr noundef null, i32 noundef 0, ptr noundef null, ptr noundef null)
          to label %5 unwind label %10

5:                                                ; preds = %4
  %6 = getelementptr inbounds nuw i8, ptr %0, i64 16
  store ptr %3, ptr %6, align 8
  %7 = getelementptr inbounds nuw i8, ptr %0, i64 24
  store i32 0, ptr %7, align 8
  ret void

8:                                                ; preds = %2
  %9 = landingpad { ptr, i32 }
          cleanup
  br label %12

10:                                               ; preds = %4
  %11 = landingpad { ptr, i32 }
          cleanup
  tail call void @_ZdlPvm(ptr noundef %3, i64 noundef 128) #23
  br label %12

12:                                               ; preds = %10, %8
  %.pn = phi { ptr, i32 } [ %11, %10 ], [ %9, %8 ]
  tail call void @_ZN18QAbstractItemModelD2Ev(ptr noundef align 8 dereferenceable_or_null(16) %0) #22
  resume { ptr, i32 } %.pn
}